; Function Attrs: mustprogress uwtable
define void @_ZN7testing4Mock31RegisterUseByOnCallOrExpectCallEPKvPKci(ptr noundef %mock_obj, ptr noundef %file, i32 noundef %line) local_unnamed_addr #3 align 2 personality ptr @__gxx_personality_v0 {
entry:
  %mock_obj.addr = alloca ptr, align 8
  store ptr %mock_obj, ptr %mock_obj.addr, align 8
  tail call void @_ZN7testing8internal9MutexBase4LockEv(ptr noundef nonnull align 8 dereferenceable(56) @_ZN7testing8internal13g_gmock_mutexE)
  %call2 = invoke fastcc noundef nonnull align 8 dereferenceable(136) ptr @_ZNSt3mapIPKvN7testing12_GLOBAL__N_115MockObjectStateESt4lessIS1_ESaISt4pairIKS1_S4_EEEixERS8_(ptr noundef nonnull align 8 dereferenceable(8) %mock_obj.addr)
          to label %invoke.cont1 unwind label %lpad

invoke.cont1:                                     ; preds = %entry
  %0 = load ptr, ptr %call2, align 8
  %cmp = icmp eq ptr %0, null
  br i1 %cmp, label %if.then, label %if.end18

if.then:                                          ; preds = %invoke.cont1
  store ptr %file, ptr %call2, align 8
  %first_used_line = getelementptr inbounds i8, ptr %call2, i64 8
  store i32 %line, ptr %first_used_line, align 8
  %call5 = invoke noundef ptr @_ZN7testing8UnitTest11GetInstanceEv()
          to label %invoke.cont4 unwind label %lpad

invoke.cont4:                                     ; preds = %if.then
  %call7 = invoke noundef ptr @_ZNK7testing8UnitTest17current_test_infoEv(ptr noundef nonnull align 8 dereferenceable(72) %call5)
          to label %invoke.cont6 unwind label %lpad

invoke.cont6:                                     ; preds = %invoke.cont4
  %cmp8.not = icmp eq ptr %call7, null
  br i1 %cmp8.not, label %if.end18, label %if.then9

if.then9:                                         ; preds = %invoke.cont6
  %call.i = tail call noundef ptr @_ZNKSt7__cxx1112basic_stringIcSt11char_traitsIcESaIcEE5c_strEv(ptr noundef nonnull align 8 dereferenceable(32) %call7) #26
  %first_used_test_case = getelementptr inbounds i8, ptr %call2, i64 16
  %call13 = invoke noundef nonnull align 8 dereferenceable(32) ptr @_ZNSt7__cxx1112basic_stringIcSt11char_traitsIcESaIcEEaSEPKc(ptr noundef nonnull align 8 dereferenceable(32) %first_used_test_case, ptr noundef %call.i)
          to label %invoke.cont12 unwind label %lpad

invoke.cont12:                                    ; preds = %if.then9
  %name_.i = getelementptr inbounds i8, ptr %call7, i64 32
  %call.i7 = tail call noundef ptr @_ZNKSt7__cxx1112basic_stringIcSt11char_traitsIcESaIcEE5c_strEv(ptr noundef nonnull align 8 dereferenceable(32) %name_.i) #26
  %first_used_test = getelementptr inbounds i8, ptr %call2, i64 48
  %call17 = invoke noundef nonnull align 8 dereferenceable(32) ptr @_ZNSt7__cxx1112basic_stringIcSt11char_traitsIcESaIcEEaSEPKc(ptr noundef nonnull align 8 dereferenceable(32) %first_used_test, ptr noundef %call.i7)
          to label %if.end18 unwind label %lpad

lpad:                                             ; preds = %entry, %invoke.cont12, %if.then9, %invoke.cont4, %if.then
  %1 = landingpad { ptr, i32 }
          cleanup
  invoke void @_ZN7testing8internal9MutexBase6UnlockEv(ptr noundef nonnull align 8 dereferenceable(56) @_ZN7testing8internal13g_gmock_mutexE)
          to label %_ZN7testing8internal14GTestMutexLockD2Ev.exit unwind label %terminate.lpad.i

terminate.lpad.i:                                 ; preds = %lpad
  %2 = landingpad { ptr, i32 }
          catch ptr null
  %3 = extractvalue { ptr, i32 } %2, 0
  tail call void @__clang_call_terminate(ptr %3) #30
  unreachable

_ZN7testing8internal14GTestMutexLockD2Ev.exit:    ; preds = %lpad
  resume { ptr, i32 } %1

if.end18:                                         ; preds = %invoke.cont6, %invoke.cont12, %invoke.cont1
  invoke void @_ZN7testing8internal9MutexBase6UnlockEv(ptr noundef nonnull align 8 dereferenceable(56) @_ZN7testing8internal13g_gmock_mutexE)
          to label %_ZN7testing8internal14GTestMutexLockD2Ev.exit9 unwind label %terminate.lpad.i8

terminate.lpad.i8:                                ; preds = %if.end18
  %4 = landingpad { ptr, i32 }
          catch ptr null
  %5 = extractvalue { ptr, i32 } %4, 0
  tail call void @__clang_call_terminate(ptr %5) #30
  unreachable

_ZN7testing8internal14GTestMutexLockD2Ev.exit9:   ; preds = %if.end18
  ret void
}